target datalayout = "e-m:e-p270:32:32-p271:32:32-p272:64:64-i64:64-i128:128-f80:128-n8:16:32:64-S128"
target triple = "x86_64-pc-linux-gnu"

%struct.X509_pubkey_st = type { ptr, ptr, ptr, ptr, ptr, i8 }

@.str = private unnamed_addr constant [34 x i8] c"../openssl/crypto/x509/x_pubkey.c\00", align 1
@X509_PUBKEY_it.local_it = internal constant { i8, [7 x i8], i64, ptr, i64, ptr, i64, ptr } { i8 4, [7 x i8] zeroinitializer, i64 16, ptr null, i64 0, ptr @x509_pubkey_ff, i64 0, ptr @.str.1 }, align 8

; Function Attrs: nounwind uwtable
define ptr @X509_PUBKEY_it() #0 {
  ret ptr @X509_PUBKEY_it.local_it
}

; Function Attrs: nounwind uwtable
define void @X509_PUBKEY_free(ptr noundef %0) #0 {
  %2 = alloca ptr, align 8
  store ptr %0, ptr %2, align 8, !tbaa !14
  %3 = load ptr, ptr %2, align 8, !tbaa !14
  %4 = call ptr @X509_PUBKEY_it()
  call void @ASN1_item_free(ptr noundef %3, ptr noundef %4)
  ret void
}

; Function Attrs: nounwind uwtable
define internal i32 @x509_pubkey_set0_libctx(ptr noundef %0, ptr noundef %1, ptr noundef %2) #0 {
  %4 = alloca i32, align 4
  %5 = alloca ptr, align 8
  %6 = alloca ptr, align 8
  %7 = alloca ptr, align 8
  store ptr %0, ptr %5, align 8, !tbaa !14
  store ptr %1, ptr %6, align 8, !tbaa !10
  store ptr %2, ptr %7, align 8, !tbaa !12
  %8 = load ptr, ptr %5, align 8, !tbaa !14
  %9 = icmp ne ptr %8, null
  br i1 %9, label %10, label %33

10:                                               ; preds = %3
  %11 = load ptr, ptr %6, align 8, !tbaa !10
  %12 = load ptr, ptr %5, align 8, !tbaa !14
  %13 = getelementptr inbounds nuw %struct.X509_pubkey_st, ptr %12, i32 0, i32 3
  store ptr %11, ptr %13, align 8, !tbaa !18
  %14 = load ptr, ptr %5, align 8, !tbaa !14
  %15 = getelementptr inbounds nuw %struct.X509_pubkey_st, ptr %14, i32 0, i32 4
  %16 = load ptr, ptr %15, align 8, !tbaa !24
  call void @CRYPTO_free(ptr noundef %16, ptr noundef @.str, i32 noundef 52)
  %17 = load ptr, ptr %5, align 8, !tbaa !14
  %18 = getelementptr inbounds nuw %struct.X509_pubkey_st, ptr %17, i32 0, i32 4
  store ptr null, ptr %18, align 8, !tbaa !24
  %19 = load ptr, ptr %7, align 8, !tbaa !12
  %20 = icmp ne ptr %19, null
  br i1 %20, label %21, label %32

21:                                               ; preds = %10
  %22 = load ptr, ptr %7, align 8, !tbaa !12
  %23 = call noalias ptr @CRYPTO_strdup(ptr noundef %22, ptr noundef @.str, i32 noundef 55)
  %24 = load ptr, ptr %5, align 8, !tbaa !14
  %25 = getelementptr inbounds nuw %struct.X509_pubkey_st, ptr %24, i32 0, i32 4
  store ptr %23, ptr %25, align 8, !tbaa !24
  %26 = load ptr, ptr %5, align 8, !tbaa !14
  %27 = getelementptr inbounds nuw %struct.X509_pubkey_st, ptr %26, i32 0, i32 4
  %28 = load ptr, ptr %27, align 8, !tbaa !24
  %29 = icmp eq ptr %28, null
  br i1 %29, label %30, label %31

30:                                               ; preds = %21
  store i32 0, ptr %4, align 4
  br label %34

31:                                               ; preds = %21
  br label %32

32:                                               ; preds = %31, %10
  br label %33

33:                                               ; preds = %32, %3
  store i32 1, ptr %4, align 4
  br label %34

34:                                               ; preds = %33, %30
  %35 = load i32, ptr %4, align 4
  ret i32 %35
}

; Function Attrs: nounwind uwtable
define internal ptr @d2i_PUBKEY_int(ptr noundef %0, ptr noundef %1, i64 noundef %2, ptr noundef %3, ptr noundef %4, i32 noundef %5, ptr noundef %6) #0 {
  %8 = alloca ptr, align 8
  %9 = alloca ptr, align 8
  %10 = alloca ptr, align 8
  %11 = alloca i64, align 8
  %12 = alloca ptr, align 8
  %13 = alloca ptr, align 8
  %14 = alloca i32, align 4
  %15 = alloca ptr, align 8
  %16 = alloca ptr, align 8
  %17 = alloca ptr, align 8
  %18 = alloca ptr, align 8
  %19 = alloca ptr, align 8
  %20 = alloca ptr, align 8
  %21 = alloca i32, align 4
  store ptr %0, ptr %9, align 8, !tbaa !37
  store ptr %1, ptr %10, align 8, !tbaa !3
  store i64 %2, ptr %11, align 8, !tbaa !8
  store ptr %3, ptr %12, align 8, !tbaa !10
  store ptr %4, ptr %13, align 8, !tbaa !12
  store i32 %5, ptr %14, align 4, !tbaa !43
  store ptr %6, ptr %15, align 8, !tbaa !63
  call void @llvm.lifetime.start.p0(i64 8, ptr %16) #5
  call void @llvm.lifetime.start.p0(i64 8, ptr %17) #5
  store ptr null, ptr %17, align 8, !tbaa !14
  call void @llvm.lifetime.start.p0(i64 8, ptr %18) #5
  store ptr null, ptr %18, align 8, !tbaa !16
  call void @llvm.lifetime.start.p0(i64 8, ptr %19) #5
  store ptr null, ptr %19, align 8, !tbaa !46
  call void @llvm.lifetime.start.p0(i64 8, ptr %20) #5
  %22 = load ptr, ptr %10, align 8, !tbaa !3
  %23 = load ptr, ptr %22, align 8, !tbaa !12
  store ptr %23, ptr %20, align 8, !tbaa !12
  %24 = load ptr, ptr %12, align 8, !tbaa !10
  %25 = icmp ne ptr %24, null
  br i1 %25, label %32, label %26

26:                                               ; preds = %7
  %27 = load ptr, ptr %13, align 8, !tbaa !12
  %28 = icmp ne ptr %27, null
  br i1 %28, label %32, label %29

29:                                               ; preds = %26
  %30 = load i32, ptr %14, align 4, !tbaa !43
  %31 = icmp ne i32 %30, 0
  br i1 %31, label %32, label %57

32:                                               ; preds = %29, %26, %7
  %33 = call noalias ptr @CRYPTO_zalloc(i64 noundef 48, ptr noundef @.str, i32 noundef 507)
  store ptr %33, ptr %17, align 8, !tbaa !14
  %34 = load ptr, ptr %17, align 8, !tbaa !14
  %35 = icmp eq ptr %34, null
  br i1 %35, label %36, label %37

36:                                               ; preds = %32
  store ptr null, ptr %8, align 8
  store i32 1, ptr %21, align 4
  br label %86

37:                                               ; preds = %32
  %38 = load ptr, ptr %17, align 8, !tbaa !14
  %39 = load ptr, ptr %12, align 8, !tbaa !10
  %40 = load ptr, ptr %13, align 8, !tbaa !12
  %41 = call i32 @x509_pubkey_set0_libctx(ptr noundef %38, ptr noundef %39, ptr noundef %40)
  %42 = icmp ne i32 %41, 0
  br i1 %42, label %44, label %43

43:                                               ; preds = %37
  br label %83

44:                                               ; preds = %37
  %45 = load i32, ptr %14, align 4, !tbaa !43
  %46 = icmp ne i32 %45, 0
  %47 = xor i1 %46, true
  %48 = xor i1 %47, true
  %49 = zext i1 %48 to i32
  %50 = load ptr, ptr %17, align 8, !tbaa !14
  %51 = getelementptr inbounds nuw %struct.X509_pubkey_st, ptr %50, i32 0, i32 5
  %52 = trunc i32 %49 to i8
  %53 = load i8, ptr %51, align 8
  %54 = and i8 %52, 1
  %55 = and i8 %53, -2
  %56 = or i8 %55, %54
  store i8 %56, ptr %51, align 8
  store ptr %17, ptr %18, align 8, !tbaa !16
  br label %57

57:                                               ; preds = %44, %29
  %58 = load ptr, ptr %15, align 8, !tbaa !63
  %59 = load ptr, ptr %18, align 8, !tbaa !16
  %60 = load i64, ptr %11, align 8, !tbaa !8
  %61 = call ptr %58(ptr noundef %59, ptr noundef %20, i64 noundef %60)
  store ptr %61, ptr %16, align 8, !tbaa !14
  %62 = load ptr, ptr %16, align 8, !tbaa !14
  %63 = icmp eq ptr %62, null
  br i1 %63, label %64, label %65

64:                                               ; preds = %57
  br label %83

65:                                               ; preds = %57
  %66 = load ptr, ptr %16, align 8, !tbaa !14
  %67 = call ptr @X509_PUBKEY_get(ptr noundef %66)
  store ptr %67, ptr %19, align 8, !tbaa !46
  %68 = load ptr, ptr %16, align 8, !tbaa !14
  call void @X509_PUBKEY_free(ptr noundef %68)
  store ptr null, ptr %17, align 8, !tbaa !14
  %69 = load ptr, ptr %19, align 8, !tbaa !46
  %70 = icmp eq ptr %69, null
  br i1 %70, label %71, label %72

71:                                               ; preds = %65
  br label %83

72:                                               ; preds = %65
  %73 = load ptr, ptr %20, align 8, !tbaa !12
  %74 = load ptr, ptr %10, align 8, !tbaa !3
  store ptr %73, ptr %74, align 8, !tbaa !12
  %75 = load ptr, ptr %9, align 8, !tbaa !37
  %76 = icmp ne ptr %75, null
  br i1 %76, label %77, label %82

77:                                               ; preds = %72
  %78 = load ptr, ptr %9, align 8, !tbaa !37
  %79 = load ptr, ptr %78, align 8, !tbaa !46
  call void @EVP_PKEY_free(ptr noundef %79)
  %80 = load ptr, ptr %19, align 8, !tbaa !46
  %81 = load ptr, ptr %9, align 8, !tbaa !37
  store ptr %80, ptr %81, align 8, !tbaa !46
  br label %82

82:                                               ; preds = %77, %72
  br label %83

83:                                               ; preds = %82, %71, %64, %43
  %84 = load ptr, ptr %17, align 8, !tbaa !14
  call void @X509_PUBKEY_free(ptr noundef %84)
  %85 = load ptr, ptr %19, align 8, !tbaa !46
  store ptr %85, ptr %8, align 8
  store i32 1, ptr %21, align 4
  br label %86

86:                                               ; preds = %83, %36
  call void @llvm.lifetime.end.p0(i64 8, ptr %20) #5
  call void @llvm.lifetime.end.p0(i64 8, ptr %19) #5
  call void @llvm.lifetime.end.p0(i64 8, ptr %18) #5
  call void @llvm.lifetime.end.p0(i64 8, ptr %17) #5
  call void @llvm.lifetime.end.p0(i64 8, ptr %16) #5
  %87 = load ptr, ptr %8, align 8
  ret ptr %87
}

; Function Attrs: nounwind uwtable
define ptr @d2i_PUBKEY_ex(ptr noundef %0, ptr noundef %1, i64 noundef %2, ptr noundef %3, ptr noundef %4) #0 {
  %6 = alloca ptr, align 8
  %7 = alloca ptr, align 8
  %8 = alloca i64, align 8
  %9 = alloca ptr, align 8
  %10 = alloca ptr, align 8
  store ptr %0, ptr %6, align 8, !tbaa !37
  store ptr %1, ptr %7, align 8, !tbaa !3
  store i64 %2, ptr %8, align 8, !tbaa !8
  store ptr %3, ptr %9, align 8, !tbaa !10
  store ptr %4, ptr %10, align 8, !tbaa !12
  %11 = load ptr, ptr %6, align 8, !tbaa !37
  %12 = load ptr, ptr %7, align 8, !tbaa !3
  %13 = load i64, ptr %8, align 8, !tbaa !8
  %14 = load ptr, ptr %9, align 8, !tbaa !10
  %15 = load ptr, ptr %10, align 8, !tbaa !12
  %16 = call ptr @d2i_PUBKEY_int(ptr noundef %11, ptr noundef %12, i64 noundef %13, ptr noundef %14, ptr noundef %15, i32 noundef 0, ptr noundef @d2i_X509_PUBKEY)
  ret ptr %16
}

; Function Attrs: nounwind uwtable
define ptr @d2i_PUBKEY(ptr noundef %0, ptr noundef %1, i64 noundef %2) #0 {
  %4 = alloca ptr, align 8
  %5 = alloca ptr, align 8
  %6 = alloca i64, align 8
  store ptr %0, ptr %4, align 8, !tbaa !37
  store ptr %1, ptr %5, align 8, !tbaa !3
  store i64 %2, ptr %6, align 8, !tbaa !8
  %7 = load ptr, ptr %4, align 8, !tbaa !37
  %8 = load ptr, ptr %5, align 8, !tbaa !3
  %9 = load i64, ptr %6, align 8, !tbaa !8
  %10 = call ptr @d2i_PUBKEY_ex(ptr noundef %7, ptr noundef %8, i64 noundef %9, ptr noundef null, ptr noundef null)
  ret ptr %10
}